target datalayout = "e-m:e-p270:32:32-p271:32:32-p272:64:64-i64:64-i128:128-f80:128-n8:16:32:64-S128"
target triple = "x86_64-pc-linux-gnu"

%struct.AVRational = type { i32, i32 }
%struct.MOVAtom = type { i32, i64 }
%struct.MOVContext = type { ptr, ptr, i32, i64, i32, i32, i32, i32, i32, i32, ptr, i32, ptr, ptr, i32, %struct.MOVFragment, ptr, i32, i32, i32, ptr, i32, i32, i32, i32, i32, i32, i32, i64, i32, i32, ptr, i32, i32, i32, i32, i32, %struct.MOVFragmentIndex, i32, i32, [20 x i8], [20 x i8], ptr, i32, ptr, i32, ptr, i32, ptr, i32, ptr, ptr, i32, i32, [3 x [3 x i32]], i32, i32, i32, i32, i32, ptr, i32, ptr, i32, i32, i64, i32 }
%struct.MOVFragment = type { i32, i32, i64, i64, i64, i32, i32, i32, i32 }
%struct.MOVFragmentIndex = type { i32, i32, i32, i32, ptr }
%struct.AVFormatContext = type { ptr, ptr, ptr, ptr, ptr, i32, i32, ptr, i32, ptr, i32, ptr, ptr, i64, i64, i64, i32, i32, i32, i64, i64, ptr, i32, i32, ptr, i32, i32, i32, i32, ptr, i64, i32, i32, %struct.AVIOInterruptCB, i32, i32, i32, i32, i64, i32, i32, i32, i32, i32, i32, i32, i32, i32, i32, i32, i32, i64, i32, i32, i32, i32, i32, ptr, ptr, ptr, ptr, i32, ptr, ptr, ptr, ptr, i32, ptr, ptr, i64, ptr, ptr, ptr, i64 }
%struct.AVIOInterruptCB = type { ptr, ptr }
%struct.AVStream = type { ptr, i32, i32, ptr, ptr, %struct.AVRational, i64, i64, i64, i32, i32, %struct.AVRational, ptr, %struct.AVRational, %struct.AVPacket, i32, %struct.AVRational, i32 }
%struct.AVPacket = type { ptr, i64, i64, ptr, i32, i32, i32, ptr, i32, i64, i64, ptr, ptr, %struct.AVRational }
%struct.AVIOContext = type { ptr, ptr, i32, ptr, ptr, ptr, ptr, ptr, ptr, i64, i32, i32, i32, i32, i32, i64, ptr, ptr, ptr, ptr, i32, i32, ptr, ptr, ptr, i32, ptr, i64, i64 }
%struct.MOVStreamContext = type { ptr, i32, i32, i32, i32, i32, i32, ptr, i32, i32, ptr, i32, i32, ptr, i32, ptr, i32, i32, ptr, i32, ptr, i32, i32, i32, ptr, ptr, i32, i32, i32, i32, i32, i32, ptr, i32, i32, ptr, i32, i64, i64, i32, i64, ptr, ptr, i32, i32, i32, i32, i16, i32, ptr, i32, i32, i32, i32, i32, i32, i32, i32, i32, [256 x i32], i32, i64, i32, i8, i64, i32, i32, ptr, i32, ptr, ptr, i32, ptr, i32, ptr, i32, i32, i32, i64, ptr, ptr, i32, i32, i32, ptr, ptr, i64, ptr, i64, ptr, i64, ptr, i64, ptr, i64, i32, i32, %struct.anon, ptr, i32 }
%struct.anon = type { ptr, ptr, i32, ptr, ptr }

@.str.152 = private unnamed_addr constant [30 x i8] c"track[%u].sdtp.entries = %ld\0A\00", align 1
@.str.153 = private unnamed_addr constant [22 x i8] c"Duplicated SDTP atom\0A\00", align 1

; Function Attrs: nounwind uwtable
define internal i32 @mov_read_sdtp(ptr noundef %0, ptr noundef %1, i32 %2, i64 %3) #0 {
  %5 = alloca i32, align 4
  %6 = alloca %struct.MOVAtom, align 8
  %7 = alloca ptr, align 8
  %8 = alloca ptr, align 8
  %9 = alloca ptr, align 8
  %10 = alloca ptr, align 8
  %11 = alloca i64, align 8
  %12 = alloca i64, align 8
  %13 = alloca i32, align 4
  %14 = getelementptr inbounds nuw { i32, i64 }, ptr %6, i32 0, i32 0
  store i32 %2, ptr %14, align 8
  %15 = getelementptr inbounds nuw { i32, i64 }, ptr %6, i32 0, i32 1
  store i64 %3, ptr %15, align 8
  store ptr %0, ptr %7, align 8, !tbaa !4
  store ptr %1, ptr %8, align 8, !tbaa !9
  call void @llvm.lifetime.start.p0(i64 8, ptr %9) #14
  call void @llvm.lifetime.start.p0(i64 8, ptr %10) #14
  call void @llvm.lifetime.start.p0(i64 8, ptr %11) #14
  call void @llvm.lifetime.start.p0(i64 8, ptr %12) #14
  %16 = load ptr, ptr %7, align 8, !tbaa !4
  %17 = getelementptr inbounds nuw %struct.MOVContext, ptr %16, i32 0, i32 1
  %18 = load ptr, ptr %17, align 8, !tbaa !13
  %19 = getelementptr inbounds nuw %struct.AVFormatContext, ptr %18, i32 0, i32 6
  %20 = load i32, ptr %19, align 4, !tbaa !30
  %21 = icmp ult i32 %20, 1
  br i1 %21, label %22, label %23

22:                                               ; preds = %4
  store i32 0, ptr %5, align 4
  store i32 1, ptr %13, align 4
  br label %110

23:                                               ; preds = %4
  %24 = load ptr, ptr %7, align 8, !tbaa !4
  %25 = getelementptr inbounds nuw %struct.MOVContext, ptr %24, i32 0, i32 1
  %26 = load ptr, ptr %25, align 8, !tbaa !13
  %27 = getelementptr inbounds nuw %struct.AVFormatContext, ptr %26, i32 0, i32 7
  %28 = load ptr, ptr %27, align 8, !tbaa !41
  %29 = load ptr, ptr %7, align 8, !tbaa !4
  %30 = getelementptr inbounds nuw %struct.MOVContext, ptr %29, i32 0, i32 1
  %31 = load ptr, ptr %30, align 8, !tbaa !13
  %32 = getelementptr inbounds nuw %struct.AVFormatContext, ptr %31, i32 0, i32 6
  %33 = load i32, ptr %32, align 4, !tbaa !30
  %34 = sub i32 %33, 1
  %35 = zext i32 %34 to i64
  %36 = getelementptr inbounds nuw ptr, ptr %28, i64 %35
  %37 = load ptr, ptr %36, align 8, !tbaa !42
  store ptr %37, ptr %9, align 8, !tbaa !42
  %38 = load ptr, ptr %9, align 8, !tbaa !42
  %39 = getelementptr inbounds nuw %struct.AVStream, ptr %38, i32 0, i32 4
  %40 = load ptr, ptr %39, align 8, !tbaa !44
  store ptr %40, ptr %10, align 8, !tbaa !51
  %41 = load ptr, ptr %8, align 8, !tbaa !9
  %42 = call i32 @avio_r8(ptr noundef %41)
  %43 = load ptr, ptr %8, align 8, !tbaa !9
  %44 = call i32 @avio_rb24(ptr noundef %43)
  %45 = getelementptr inbounds nuw %struct.MOVAtom, ptr %6, i32 0, i32 1
  %46 = load i64, ptr %45, align 8, !tbaa !58
  %47 = sub nsw i64 %46, 4
  store i64 %47, ptr %12, align 8, !tbaa !59
  %48 = load ptr, ptr %7, align 8, !tbaa !4
  %49 = getelementptr inbounds nuw %struct.MOVContext, ptr %48, i32 0, i32 1
  %50 = load ptr, ptr %49, align 8, !tbaa !13
  %51 = load ptr, ptr %7, align 8, !tbaa !4
  %52 = getelementptr inbounds nuw %struct.MOVContext, ptr %51, i32 0, i32 1
  %53 = load ptr, ptr %52, align 8, !tbaa !13
  %54 = getelementptr inbounds nuw %struct.AVFormatContext, ptr %53, i32 0, i32 6
  %55 = load i32, ptr %54, align 4, !tbaa !30
  %56 = sub i32 %55, 1
  %57 = load i64, ptr %12, align 8, !tbaa !59
  call void (ptr, i32, ptr, ...) @av_log(ptr noundef %50, i32 noundef 56, ptr noundef @.str.152, i32 noundef %56, i64 noundef %57)
  %58 = load ptr, ptr %10, align 8, !tbaa !51
  %59 = getelementptr inbounds nuw %struct.MOVStreamContext, ptr %58, i32 0, i32 15
  %60 = load ptr, ptr %59, align 8, !tbaa !400
  %61 = icmp ne ptr %60, null
  br i1 %61, label %62, label %66

62:                                               ; preds = %23
  %63 = load ptr, ptr %7, align 8, !tbaa !4
  %64 = getelementptr inbounds nuw %struct.MOVContext, ptr %63, i32 0, i32 1
  %65 = load ptr, ptr %64, align 8, !tbaa !13
  call void (ptr, i32, ptr, ...) @av_log(ptr noundef %65, i32 noundef 24, ptr noundef @.str.153)
  br label %66

66:                                               ; preds = %62, %23
  %67 = load ptr, ptr %10, align 8, !tbaa !51
  %68 = getelementptr inbounds nuw %struct.MOVStreamContext, ptr %67, i32 0, i32 15
  call void @av_freep(ptr noundef %68)
  %69 = load ptr, ptr %10, align 8, !tbaa !51
  %70 = getelementptr inbounds nuw %struct.MOVStreamContext, ptr %69, i32 0, i32 14
  store i32 0, ptr %70, align 8, !tbaa !401
  %71 = load i64, ptr %12, align 8, !tbaa !59
  %72 = call noalias ptr @av_malloc(i64 noundef %71)
  %73 = load ptr, ptr %10, align 8, !tbaa !51
  %74 = getelementptr inbounds nuw %struct.MOVStreamContext, ptr %73, i32 0, i32 15
  store ptr %72, ptr %74, align 8, !tbaa !400
  %75 = load ptr, ptr %10, align 8, !tbaa !51
  %76 = getelementptr inbounds nuw %struct.MOVStreamContext, ptr %75, i32 0, i32 15
  %77 = load ptr, ptr %76, align 8, !tbaa !400
  %78 = icmp ne ptr %77, null
  br i1 %78, label %80, label %79

79:                                               ; preds = %66
  store i32 -12, ptr %5, align 4
  store i32 1, ptr %13, align 4
  br label %110

80:                                               ; preds = %66
  store i64 0, ptr %11, align 8, !tbaa !59
  br label %81

81:                                               ; preds = %102, %80
  %82 = load i64, ptr %11, align 8, !tbaa !59
  %83 = load i64, ptr %12, align 8, !tbaa !59
  %84 = icmp slt i64 %82, %83
  br i1 %84, label %85, label %91

85:                                               ; preds = %81
  %86 = load ptr, ptr %8, align 8, !tbaa !9
  %87 = getelementptr inbounds nuw %struct.AVIOContext, ptr %86, i32 0, i32 10
  %88 = load i32, ptr %87, align 8, !tbaa !53
  %89 = icmp ne i32 %88, 0
  %90 = xor i1 %89, true
  br label %91

91:                                               ; preds = %85, %81
  %92 = phi i1 [ false, %81 ], [ %90, %85 ]
  br i1 %92, label %93, label %105

93:                                               ; preds = %91
  %94 = load ptr, ptr %8, align 8, !tbaa !9
  %95 = call i32 @avio_r8(ptr noundef %94)
  %96 = trunc i32 %95 to i8
  %97 = load ptr, ptr %10, align 8, !tbaa !51
  %98 = getelementptr inbounds nuw %struct.MOVStreamContext, ptr %97, i32 0, i32 15
  %99 = load ptr, ptr %98, align 8, !tbaa !400
  %100 = load i64, ptr %11, align 8, !tbaa !59
  %101 = getelementptr inbounds i8, ptr %99, i64 %100
  store i8 %96, ptr %101, align 1, !tbaa !55
  br label %102

102:                                              ; preds = %93
  %103 = load i64, ptr %11, align 8, !tbaa !59
  %104 = add nsw i64 %103, 1
  store i64 %104, ptr %11, align 8, !tbaa !59
  br label %81, !llvm.loop !402

105:                                              ; preds = %91
  %106 = load i64, ptr %11, align 8, !tbaa !59
  %107 = trunc i64 %106 to i32
  %108 = load ptr, ptr %10, align 8, !tbaa !51
  %109 = getelementptr inbounds nuw %struct.MOVStreamContext, ptr %108, i32 0, i32 14
  store i32 %107, ptr %109, align 8, !tbaa !401
  store i32 0, ptr %5, align 4
  store i32 1, ptr %13, align 4
  br label %110

110:                                              ; preds = %105, %79, %22
  call void @llvm.lifetime.end.p0(i64 8, ptr %12) #14
  call void @llvm.lifetime.end.p0(i64 8, ptr %11) #14
  call void @llvm.lifetime.end.p0(i64 8, ptr %10) #14
  call void @llvm.lifetime.end.p0(i64 8, ptr %9) #14
  %111 = load i32, ptr %5, align 4
  ret i32 %111
}