; Function Attrs: nounwind uwtable
define internal range(i32 -12, 1) i32 @mov_read_sdtp(ptr noundef readonly captures(none) %0, ptr noundef %1, i32 %2, i64 %3) #0 {
  %5 = getelementptr inbounds nuw i8, ptr %0, i64 8
  %6 = load ptr, ptr %5, align 8, !tbaa !4
  %7 = getelementptr inbounds nuw i8, ptr %6, i64 44
  %8 = load i32, ptr %7, align 4, !tbaa !25
  %9 = icmp eq i32 %8, 0
  br i1 %9, label %43, label %10

10:                                               ; preds = %4
  %11 = getelementptr inbounds nuw i8, ptr %6, i64 48
  %12 = load ptr, ptr %11, align 8, !tbaa !37
  %13 = add i32 %8, -1
  %14 = zext i32 %13 to i64
  %15 = getelementptr inbounds nuw ptr, ptr %12, i64 %14
  %16 = load ptr, ptr %15, align 8, !tbaa !38
  %17 = getelementptr inbounds nuw i8, ptr %16, i64 24
  %18 = load ptr, ptr %17, align 8, !tbaa !40
  %19 = tail call i32 @avio_r8(ptr noundef %1) #16
  %20 = tail call i32 @avio_rb24(ptr noundef %1) #16
  %21 = add nsw i64 %3, -4
  %22 = load ptr, ptr %5, align 8, !tbaa !4
  %23 = getelementptr inbounds nuw i8, ptr %22, i64 44
  %24 = load i32, ptr %23, align 4, !tbaa !25
  %25 = add i32 %24, -1
  tail call void (ptr, i32, ptr, ...) @av_log(ptr noundef %22, i32 noundef 56, ptr noundef nonnull @.str.152, i32 noundef %25, i64 noundef %21) #16
  %26 = getelementptr inbounds nuw i8, ptr %18, i64 80
  %27 = load ptr, ptr %26, align 8, !tbaa !486
  %.not = icmp eq ptr %27, null
  br i1 %.not, label %30, label %28

28:                                               ; preds = %10
  %29 = load ptr, ptr %5, align 8, !tbaa !4
  tail call void (ptr, i32, ptr, ...) @av_log(ptr noundef %29, i32 noundef 24, ptr noundef nonnull @.str.153) #16
  br label %30

30:                                               ; preds = %28, %10
  tail call void @av_freep(ptr noundef nonnull %26) #16
  %31 = getelementptr inbounds nuw i8, ptr %18, i64 72
  store i32 0, ptr %31, align 8, !tbaa !487
  %32 = tail call noalias ptr @av_malloc(i64 noundef %21) #16
  store ptr %32, ptr %26, align 8, !tbaa !486
  %.not27 = icmp eq ptr %32, null
  br i1 %.not27, label %43, label %.preheader

.preheader:                                       ; preds = %30
  %33 = getelementptr inbounds nuw i8, ptr %1, i64 80
  %34 = icmp sgt i64 %3, 4
  br i1 %34, label %.lr.ph, label %.critedge

.lr.ph:                                           ; preds = %.preheader, %36
  %.02529 = phi i64 [ %41, %36 ], [ 0, %.preheader ]
  %35 = load i32, ptr %33, align 8, !tbaa !47
  %.not28 = icmp eq i32 %35, 0
  br i1 %.not28, label %36, label %.critedge.loopexit

36:                                               ; preds = %.lr.ph
  %37 = tail call i32 @avio_r8(ptr noundef nonnull %1) #16
  %38 = trunc i32 %37 to i8
  %39 = load ptr, ptr %26, align 8, !tbaa !486
  %40 = getelementptr inbounds nuw i8, ptr %39, i64 %.02529
  store i8 %38, ptr %40, align 1, !tbaa !82
  %41 = add nuw nsw i64 %.02529, 1
  %exitcond.not = icmp eq i64 %41, %21
  br i1 %exitcond.not, label %.critedge.loopexit, label %.lr.ph, !llvm.loop !488

.critedge.loopexit:                               ; preds = %36, %.lr.ph
  %.025.lcssa.ph = phi i64 [ %.02529, %.lr.ph ], [ %21, %36 ]
  %42 = trunc i64 %.025.lcssa.ph to i32
  br label %.critedge

.critedge:                                        ; preds = %.critedge.loopexit, %.preheader
  %.025.lcssa = phi i32 [ 0, %.preheader ], [ %42, %.critedge.loopexit ]
  store i32 %.025.lcssa, ptr %31, align 8, !tbaa !487
  br label %43

43:                                               ; preds = %30, %4, %.critedge
  %.0 = phi i32 [ 0, %.critedge ], [ 0, %4 ], [ -12, %30 ]
  ret i32 %.0
}